target datalayout = "e-m:e-p270:32:32-p271:32:32-p272:64:64-i64:64-i128:128-f80:128-n8:16:32:64-S128"
target triple = "x86_64-pc-linux-gnu"

%struct.jpeg_compress_struct = type { ptr, ptr, ptr, ptr, i32, i32, ptr, i32, i32, i32, i32, double, i32, i32, i32, ptr, [4 x ptr], [4 x ptr], [4 x ptr], [16 x i8], [16 x i8], [16 x i8], i32, ptr, i32, i32, i32, i32, i32, i32, i32, i32, i32, i8, i8, i8, i16, i16, i32, i32, i32, i32, i32, i32, i32, [4 x ptr], i32, i32, i32, [10 x i32], i32, i32, i32, i32, ptr, ptr, ptr, ptr, ptr, ptr, ptr, ptr, ptr, ptr, i32 }
%struct.jpeg_memory_mgr = type { ptr, ptr, ptr, ptr, ptr, ptr, ptr, ptr, ptr, ptr, ptr, i64, i64 }
%struct.my_marker_writer = type { %struct.jpeg_marker_writer, i32 }
%struct.jpeg_marker_writer = type { ptr, ptr, ptr, ptr, ptr, ptr, ptr }

; Function Attrs: nounwind uwtable
define void @jinit_marker_writer(ptr noundef %0) #0 {
  %2 = alloca ptr, align 8
  %3 = alloca ptr, align 8
  store ptr %0, ptr %2, align 8, !tbaa !3
  call void @llvm.lifetime.start.p0(i64 8, ptr %3) #2
  %4 = load ptr, ptr %2, align 8, !tbaa !3
  %5 = getelementptr inbounds nuw %struct.jpeg_compress_struct, ptr %4, i32 0, i32 1
  %6 = load ptr, ptr %5, align 8, !tbaa !8
  %7 = getelementptr inbounds nuw %struct.jpeg_memory_mgr, ptr %6, i32 0, i32 0
  %8 = load ptr, ptr %7, align 8, !tbaa !26
  %9 = load ptr, ptr %2, align 8, !tbaa !3
  %10 = call ptr %8(ptr noundef %9, i32 noundef 1, i64 noundef 64)
  store ptr %10, ptr %3, align 8, !tbaa !29
  %11 = load ptr, ptr %3, align 8, !tbaa !29
  %12 = load ptr, ptr %2, align 8, !tbaa !3
  %13 = getelementptr inbounds nuw %struct.jpeg_compress_struct, ptr %12, i32 0, i32 58
  store ptr %11, ptr %13, align 8, !tbaa !30
  %14 = load ptr, ptr %3, align 8, !tbaa !29
  %15 = getelementptr inbounds nuw %struct.my_marker_writer, ptr %14, i32 0, i32 0
  %16 = getelementptr inbounds nuw %struct.jpeg_marker_writer, ptr %15, i32 0, i32 0
  store ptr @write_file_header, ptr %16, align 8, !tbaa !31
  %17 = load ptr, ptr %3, align 8, !tbaa !29
  %18 = getelementptr inbounds nuw %struct.my_marker_writer, ptr %17, i32 0, i32 0
  %19 = getelementptr inbounds nuw %struct.jpeg_marker_writer, ptr %18, i32 0, i32 1
  store ptr @write_frame_header, ptr %19, align 8, !tbaa !34
  %20 = load ptr, ptr %3, align 8, !tbaa !29
  %21 = getelementptr inbounds nuw %struct.my_marker_writer, ptr %20, i32 0, i32 0
  %22 = getelementptr inbounds nuw %struct.jpeg_marker_writer, ptr %21, i32 0, i32 2
  store ptr @write_scan_header, ptr %22, align 8, !tbaa !35
  %23 = load ptr, ptr %3, align 8, !tbaa !29
  %24 = getelementptr inbounds nuw %struct.my_marker_writer, ptr %23, i32 0, i32 0
  %25 = getelementptr inbounds nuw %struct.jpeg_marker_writer, ptr %24, i32 0, i32 3
  store ptr @write_file_trailer, ptr %25, align 8, !tbaa !36
  %26 = load ptr, ptr %3, align 8, !tbaa !29
  %27 = getelementptr inbounds nuw %struct.my_marker_writer, ptr %26, i32 0, i32 0
  %28 = getelementptr inbounds nuw %struct.jpeg_marker_writer, ptr %27, i32 0, i32 4
  store ptr @write_tables_only, ptr %28, align 8, !tbaa !37
  %29 = load ptr, ptr %3, align 8, !tbaa !29
  %30 = getelementptr inbounds nuw %struct.my_marker_writer, ptr %29, i32 0, i32 0
  %31 = getelementptr inbounds nuw %struct.jpeg_marker_writer, ptr %30, i32 0, i32 5
  store ptr @write_marker_header, ptr %31, align 8, !tbaa !38
  %32 = load ptr, ptr %3, align 8, !tbaa !29
  %33 = getelementptr inbounds nuw %struct.my_marker_writer, ptr %32, i32 0, i32 0
  %34 = getelementptr inbounds nuw %struct.jpeg_marker_writer, ptr %33, i32 0, i32 6
  store ptr @write_marker_byte, ptr %34, align 8, !tbaa !39
  %35 = load ptr, ptr %3, align 8, !tbaa !29
  %36 = getelementptr inbounds nuw %struct.my_marker_writer, ptr %35, i32 0, i32 1
  store i32 0, ptr %36, align 8, !tbaa !40
  call void @llvm.lifetime.end.p0(i64 8, ptr %3) #2
  ret void
}