; Function Attrs: nounwind uwtable
define void @jinit_marker_writer(ptr noundef %0) local_unnamed_addr #0 {
  %2 = getelementptr inbounds nuw i8, ptr %0, i64 8
  %3 = load ptr, ptr %2, align 8, !tbaa !3
  %4 = load ptr, ptr %3, align 8, !tbaa !24
  %5 = tail call ptr %4(ptr noundef %0, i32 noundef 1, i64 noundef 64) #3
  %6 = getelementptr inbounds nuw i8, ptr %0, i64 464
  store ptr %5, ptr %6, align 8, !tbaa !27
  store ptr @write_file_header, ptr %5, align 8, !tbaa !28
  %7 = getelementptr inbounds nuw i8, ptr %5, i64 8
  store ptr @write_frame_header, ptr %7, align 8, !tbaa !31
  %8 = getelementptr inbounds nuw i8, ptr %5, i64 16
  store ptr @write_scan_header, ptr %8, align 8, !tbaa !32
  %9 = getelementptr inbounds nuw i8, ptr %5, i64 24
  store ptr @write_file_trailer, ptr %9, align 8, !tbaa !33
  %10 = getelementptr inbounds nuw i8, ptr %5, i64 32
  store ptr @write_tables_only, ptr %10, align 8, !tbaa !34
  %11 = getelementptr inbounds nuw i8, ptr %5, i64 40
  store ptr @write_marker_header, ptr %11, align 8, !tbaa !35
  %12 = getelementptr inbounds nuw i8, ptr %5, i64 48
  store ptr @write_marker_byte, ptr %12, align 8, !tbaa !36
  %13 = getelementptr inbounds nuw i8, ptr %5, i64 56
  store i32 0, ptr %13, align 8, !tbaa !37
  ret void
}